; Function Attrs: mustprogress uwtable
define void @_ZN11LayerDialog10updateAnimEv(ptr nocapture noundef nonnull align 8 dereferenceable(256) %0) local_unnamed_addr #9 align 2 {
  %2 = tail call noundef i32 @_ZN11LayerDialog8stepAnimEi(ptr noundef nonnull align 8 dereferenceable(256) %0, i32 noundef 1)
  %3 = icmp sgt i32 %2, 1
  br i1 %3, label %4, label %9

4:                                                ; preds = %1
  %5 = getelementptr inbounds i8, ptr %0, i64 208
  %6 = load ptr, ptr %5, align 8
  %7 = getelementptr inbounds i8, ptr %0, i64 200
  %8 = load i32, ptr %7, align 8
  tail call void @_ZN6QTimer5startEi(ptr noundef nonnull align 8 dereferenceable(29) %6, i32 noundef %8)
  br label %10

9:                                                ; preds = %1
  tail call void @_ZN11LayerDialog9pauseAnimEv(ptr noundef nonnull align 8 dereferenceable(256) %0)
  br label %10

10:                                               ; preds = %9, %4
  ret void
}